target datalayout = "e-m:e-p270:32:32-p271:32:32-p272:64:64-i64:64-i128:128-f80:128-n8:16:32:64-S128"
target triple = "x86_64-pc-linux-gnu"

%struct.object_id = type { [32 x i8], i32 }
%struct.hashmap = type { ptr, ptr, ptr, i32, i32, i32, i32, i8 }
%struct.hashmap_entry = type { ptr, i32 }
%struct.index_state = type { ptr, i32, i32, i32, i32, ptr, ptr, ptr, %struct.cache_time, i8, i32, %struct.hashmap, %struct.hashmap, %struct.object_id, ptr, ptr, ptr, ptr, ptr, ptr, ptr }
%struct.cache_time = type { i32, i32 }
%struct.cache_entry = type { %struct.hashmap_entry, %struct.stat_data, i32, i32, i32, i32, i32, %struct.object_id, [0 x i8] }
%struct.stat_data = type { %struct.cache_time, %struct.cache_time, i32, i32, i32, i32, i32 }

; Function Attrs: nounwind uwtable
define internal ptr @read_attr_from_blob(ptr noundef %0, ptr noundef %1, ptr noundef %2, i32 noundef %3) #0 {
  %5 = alloca ptr, align 8
  %6 = alloca ptr, align 8
  %7 = alloca ptr, align 8
  %8 = alloca ptr, align 8
  %9 = alloca i32, align 4
  %10 = alloca %struct.object_id, align 4
  %11 = alloca i64, align 8
  %12 = alloca i32, align 4
  %13 = alloca ptr, align 8
  %14 = alloca i16, align 2
  %15 = alloca i32, align 4
  store ptr %0, ptr %6, align 8, !tbaa !64
  store ptr %1, ptr %7, align 8, !tbaa !66
  store ptr %2, ptr %8, align 8, !tbaa !9
  store i32 %3, ptr %9, align 4, !tbaa !13
  call void @llvm.lifetime.start.p0(i64 36, ptr %10) #11
  call void @llvm.lifetime.start.p0(i64 8, ptr %11) #11
  call void @llvm.lifetime.start.p0(i64 4, ptr %12) #11
  call void @llvm.lifetime.start.p0(i64 8, ptr %13) #11
  call void @llvm.lifetime.start.p0(i64 2, ptr %14) #11
  %16 = load ptr, ptr %7, align 8, !tbaa !66
  %17 = icmp ne ptr %16, null
  br i1 %17, label %19, label %18

18:                                               ; preds = %4
  store ptr null, ptr %5, align 8
  store i32 1, ptr %15, align 4
  br label %46

19:                                               ; preds = %4
  %20 = load ptr, ptr %6, align 8, !tbaa !64
  %21 = getelementptr inbounds nuw %struct.index_state, ptr %20, i32 0, i32 19
  %22 = load ptr, ptr %21, align 8, !tbaa !143
  %23 = load ptr, ptr %7, align 8, !tbaa !66
  %24 = load ptr, ptr %8, align 8, !tbaa !9
  %25 = call i32 @get_tree_entry(ptr noundef %22, ptr noundef %23, ptr noundef %24, ptr noundef %10, ptr noundef %14)
  %26 = icmp ne i32 %25, 0
  br i1 %26, label %27, label %28

27:                                               ; preds = %19
  store ptr null, ptr %5, align 8
  store i32 1, ptr %15, align 4
  br label %46

28:                                               ; preds = %19
  %29 = load ptr, ptr %6, align 8, !tbaa !64
  %30 = getelementptr inbounds nuw %struct.index_state, ptr %29, i32 0, i32 19
  %31 = load ptr, ptr %30, align 8, !tbaa !143
  %32 = call ptr @repo_read_object_file(ptr noundef %31, ptr noundef %10, ptr noundef %12, ptr noundef %11)
  store ptr %32, ptr %13, align 8, !tbaa !50
  %33 = load ptr, ptr %13, align 8, !tbaa !50
  %34 = icmp ne ptr %33, null
  br i1 %34, label %35, label %38

35:                                               ; preds = %28
  %36 = load i32, ptr %12, align 4, !tbaa !13
  %37 = icmp ne i32 %36, 3
  br i1 %37, label %38, label %40

38:                                               ; preds = %35, %28
  %39 = load ptr, ptr %13, align 8, !tbaa !50
  call void @free(ptr noundef %39) #11
  store ptr null, ptr %5, align 8
  store i32 1, ptr %15, align 4
  br label %46

40:                                               ; preds = %35
  %41 = load ptr, ptr %13, align 8, !tbaa !50
  %42 = load i64, ptr %11, align 8, !tbaa !11
  %43 = load ptr, ptr %8, align 8, !tbaa !9
  %44 = load i32, ptr %9, align 4, !tbaa !13
  %45 = call ptr @read_attr_from_buf(ptr noundef %41, i64 noundef %42, ptr noundef %43, i32 noundef %44)
  store ptr %45, ptr %5, align 8
  store i32 1, ptr %15, align 4
  br label %46

46:                                               ; preds = %40, %38, %27, %18
  call void @llvm.lifetime.end.p0(i64 2, ptr %14) #11
  call void @llvm.lifetime.end.p0(i64 8, ptr %13) #11
  call void @llvm.lifetime.end.p0(i64 4, ptr %12) #11
  call void @llvm.lifetime.end.p0(i64 8, ptr %11) #11
  call void @llvm.lifetime.end.p0(i64 36, ptr %10) #11
  %47 = load ptr, ptr %5, align 8
  ret ptr %47
}

; Function Attrs: nounwind uwtable
define internal ptr @read_attr_from_index(ptr noundef %0, ptr noundef %1, i32 noundef %2) #0 {
  %4 = alloca ptr, align 8
  %5 = alloca ptr, align 8
  %6 = alloca ptr, align 8
  %7 = alloca i32, align 4
  %8 = alloca ptr, align 8
  %9 = alloca ptr, align 8
  %10 = alloca i64, align 8
  %11 = alloca i32, align 4
  %12 = alloca i32, align 4
  %13 = alloca i32, align 4
  %14 = alloca ptr, align 8
  store ptr %0, ptr %5, align 8, !tbaa !64
  store ptr %1, ptr %6, align 8, !tbaa !9
  store i32 %2, ptr %7, align 4, !tbaa !13
  call void @llvm.lifetime.start.p0(i64 8, ptr %8) #11
  store ptr null, ptr %8, align 8, !tbaa !56
  call void @llvm.lifetime.start.p0(i64 8, ptr %9) #11
  call void @llvm.lifetime.start.p0(i64 8, ptr %10) #11
  call void @llvm.lifetime.start.p0(i64 4, ptr %11) #11
  store i32 -1, ptr %11, align 4, !tbaa !13
  %15 = load ptr, ptr %5, align 8, !tbaa !64
  %16 = icmp ne ptr %15, null
  br i1 %16, label %18, label %17

17:                                               ; preds = %3
  store ptr null, ptr %4, align 8
  store i32 1, ptr %12, align 4
  br label %114

18:                                               ; preds = %3
  %19 = load ptr, ptr %6, align 8, !tbaa !9
  %20 = load ptr, ptr %5, align 8, !tbaa !64
  %21 = call i32 @path_in_cone_mode_sparse_checkout(ptr noundef %19, ptr noundef %20)
  %22 = icmp ne i32 %21, 0
  br i1 %22, label %37, label %23

23:                                               ; preds = %18
  call void @llvm.lifetime.start.p0(i64 4, ptr %13) #11
  %24 = load ptr, ptr %5, align 8, !tbaa !64
  %25 = load ptr, ptr %6, align 8, !tbaa !9
  %26 = load ptr, ptr %6, align 8, !tbaa !9
  %27 = call i64 @strlen(ptr noundef %26) #10
  %28 = trunc i64 %27 to i32
  %29 = call i32 @index_name_pos_sparse(ptr noundef %24, ptr noundef %25, i32 noundef %28)
  store i32 %29, ptr %13, align 4, !tbaa !13
  %30 = load i32, ptr %13, align 4, !tbaa !13
  %31 = icmp slt i32 %30, 0
  br i1 %31, label %32, label %36

32:                                               ; preds = %23
  %33 = load i32, ptr %13, align 4, !tbaa !13
  %34 = sub nsw i32 0, %33
  %35 = sub nsw i32 %34, 2
  store i32 %35, ptr %11, align 4, !tbaa !13
  br label %36

36:                                               ; preds = %32, %23
  call void @llvm.lifetime.end.p0(i64 4, ptr %13) #11
  br label %37

37:                                               ; preds = %36, %18
  %38 = load i32, ptr %11, align 4, !tbaa !13
  %39 = icmp sge i32 %38, 0
  br i1 %39, label %40, label %99

40:                                               ; preds = %37
  %41 = load ptr, ptr %5, align 8, !tbaa !64
  %42 = getelementptr inbounds nuw %struct.index_state, ptr %41, i32 0, i32 0
  %43 = load ptr, ptr %42, align 8, !tbaa !128
  %44 = load i32, ptr %11, align 4, !tbaa !13
  %45 = sext i32 %44 to i64
  %46 = getelementptr inbounds ptr, ptr %43, i64 %45
  %47 = load ptr, ptr %46, align 8, !tbaa !141
  %48 = getelementptr inbounds nuw %struct.cache_entry, ptr %47, i32 0, i32 2
  %49 = load i32, ptr %48, align 4, !tbaa !13
  %50 = icmp eq i32 %49, 16384
  br i1 %50, label %51, label %99

51:                                               ; preds = %40
  %52 = load ptr, ptr %5, align 8, !tbaa !64
  %53 = getelementptr inbounds nuw %struct.index_state, ptr %52, i32 0, i32 0
  %54 = load ptr, ptr %53, align 8, !tbaa !128
  %55 = load i32, ptr %11, align 4, !tbaa !13
  %56 = sext i32 %55 to i64
  %57 = getelementptr inbounds ptr, ptr %54, i64 %56
  %58 = load ptr, ptr %57, align 8, !tbaa !141
  %59 = getelementptr inbounds nuw %struct.cache_entry, ptr %58, i32 0, i32 8
  %60 = getelementptr inbounds [0 x i8], ptr %59, i64 0, i64 0
  %61 = load ptr, ptr %6, align 8, !tbaa !9
  %62 = load ptr, ptr %5, align 8, !tbaa !64
  %63 = getelementptr inbounds nuw %struct.index_state, ptr %62, i32 0, i32 0
  %64 = load ptr, ptr %63, align 8, !tbaa !128
  %65 = load i32, ptr %11, align 4, !tbaa !13
  %66 = sext i32 %65 to i64
  %67 = getelementptr inbounds ptr, ptr %64, i64 %66
  %68 = load ptr, ptr %67, align 8, !tbaa !141
  %69 = getelementptr inbounds nuw %struct.cache_entry, ptr %68, i32 0, i32 5
  %70 = load i32, ptr %69, align 8, !tbaa !13
  %71 = zext i32 %70 to i64
  %72 = call i32 @strncmp(ptr noundef %60, ptr noundef %61, i64 noundef %71) #10
  %73 = icmp ne i32 %72, 0
  br i1 %73, label %99, label %74

74:                                               ; preds = %51
  call void @llvm.lifetime.start.p0(i64 8, ptr %14) #11
  %75 = load ptr, ptr %6, align 8, !tbaa !9
  %76 = load ptr, ptr %5, align 8, !tbaa !64
  %77 = getelementptr inbounds nuw %struct.index_state, ptr %76, i32 0, i32 0
  %78 = load ptr, ptr %77, align 8, !tbaa !128
  %79 = load i32, ptr %11, align 4, !tbaa !13
  %80 = sext i32 %79 to i64
  %81 = getelementptr inbounds ptr, ptr %78, i64 %80
  %82 = load ptr, ptr %81, align 8, !tbaa !141
  %83 = getelementptr inbounds nuw %struct.cache_entry, ptr %82, i32 0, i32 5
  %84 = load i32, ptr %83, align 8, !tbaa !13
  %85 = zext i32 %84 to i64
  %86 = getelementptr inbounds nuw i8, ptr %75, i64 %85
  store ptr %86, ptr %14, align 8, !tbaa !9
  %87 = load ptr, ptr %5, align 8, !tbaa !64
  %88 = load ptr, ptr %5, align 8, !tbaa !64
  %89 = getelementptr inbounds nuw %struct.index_state, ptr %88, i32 0, i32 0
  %90 = load ptr, ptr %89, align 8, !tbaa !128
  %91 = load i32, ptr %11, align 4, !tbaa !13
  %92 = sext i32 %91 to i64
  %93 = getelementptr inbounds ptr, ptr %90, i64 %92
  %94 = load ptr, ptr %93, align 8, !tbaa !141
  %95 = getelementptr inbounds nuw %struct.cache_entry, ptr %94, i32 0, i32 7
  %96 = load ptr, ptr %14, align 8, !tbaa !9
  %97 = load i32, ptr %7, align 4, !tbaa !13
  %98 = call ptr @read_attr_from_blob(ptr noundef %87, ptr noundef %95, ptr noundef %96, i32 noundef %97)
  store ptr %98, ptr %8, align 8, !tbaa !56
  call void @llvm.lifetime.end.p0(i64 8, ptr %14) #11
  br label %112

99:                                               ; preds = %51, %40, %37
  %100 = load ptr, ptr %5, align 8, !tbaa !64
  %101 = load ptr, ptr %6, align 8, !tbaa !9
  %102 = call ptr @read_blob_data_from_index(ptr noundef %100, ptr noundef %101, ptr noundef %10)
  store ptr %102, ptr %9, align 8, !tbaa !9
  %103 = load ptr, ptr %9, align 8, !tbaa !9
  %104 = icmp ne ptr %103, null
  br i1 %104, label %105, label %111

105:                                              ; preds = %99
  %106 = load ptr, ptr %9, align 8, !tbaa !9
  %107 = load i64, ptr %10, align 8, !tbaa !11
  %108 = load ptr, ptr %6, align 8, !tbaa !9
  %109 = load i32, ptr %7, align 4, !tbaa !13
  %110 = call ptr @read_attr_from_buf(ptr noundef %106, i64 noundef %107, ptr noundef %108, i32 noundef %109)
  store ptr %110, ptr %8, align 8, !tbaa !56
  br label %111

111:                                              ; preds = %105, %99
  br label %112

112:                                              ; preds = %111, %74
  %113 = load ptr, ptr %8, align 8, !tbaa !56
  store ptr %113, ptr %4, align 8
  store i32 1, ptr %12, align 4
  br label %114

114:                                              ; preds = %112, %17
  call void @llvm.lifetime.end.p0(i64 4, ptr %11) #11
  call void @llvm.lifetime.end.p0(i64 8, ptr %10) #11
  call void @llvm.lifetime.end.p0(i64 8, ptr %9) #11
  call void @llvm.lifetime.end.p0(i64 8, ptr %8) #11
  %115 = load ptr, ptr %4, align 8
  ret ptr %115
}