; Function Attrs: nounwind uwtable
define internal fastcc ptr @read_attr_from_index(ptr noundef %0, ptr noundef %1, i32 noundef range(i32 2, 4) %2) unnamed_addr #1 {
  %4 = alloca %struct.object_id, align 4
  %5 = alloca i64, align 8
  %6 = alloca i32, align 4
  %7 = alloca i16, align 2
  %8 = alloca i64, align 8
  call void @llvm.lifetime.start.p0(i64 8, ptr nonnull %8) #21
  %.not = icmp eq ptr %0, null
  br i1 %.not, label %51, label %9

9:                                                ; preds = %3
  %10 = tail call i32 @path_in_cone_mode_sparse_checkout(ptr noundef %1, ptr noundef nonnull %0) #21
  %.not36 = icmp eq i32 %10, 0
  br i1 %.not36, label %11, label %.thread

11:                                               ; preds = %9
  %12 = tail call i64 @strlen(ptr noundef nonnull dereferenceable(1) %1) #20
  %13 = trunc i64 %12 to i32
  %14 = tail call i32 @index_name_pos_sparse(ptr noundef nonnull %0, ptr noundef nonnull %1, i32 noundef %13) #21
  %15 = icmp slt i32 %14, -1
  br i1 %15, label %16, label %.thread

16:                                               ; preds = %11
  %17 = sub nuw nsw i32 -2, %14
  %18 = load ptr, ptr %0, align 8, !tbaa !79
  %19 = zext nneg i32 %17 to i64
  %20 = getelementptr inbounds nuw ptr, ptr %18, i64 %19
  %21 = load ptr, ptr %20, align 8, !tbaa !93
  %22 = getelementptr inbounds nuw i8, ptr %21, i64 52
  %23 = load i32, ptr %22, align 4, !tbaa !22
  %24 = icmp eq i32 %23, 16384
  br i1 %24, label %25, label %.thread

25:                                               ; preds = %16
  %26 = getelementptr inbounds nuw i8, ptr %21, i64 108
  %27 = getelementptr inbounds nuw i8, ptr %21, i64 64
  %28 = load i32, ptr %27, align 8, !tbaa !22
  %29 = zext i32 %28 to i64
  %30 = tail call i32 @strncmp(ptr noundef nonnull %26, ptr noundef nonnull %1, i64 noundef %29) #20
  %.not37 = icmp eq i32 %30, 0
  br i1 %.not37, label %31, label %.thread

31:                                               ; preds = %25
  %32 = getelementptr inbounds nuw i8, ptr %1, i64 %29
  %33 = getelementptr inbounds nuw i8, ptr %21, i64 72
  call void @llvm.lifetime.start.p0(i64 36, ptr nonnull %4) #21
  call void @llvm.lifetime.start.p0(i64 8, ptr nonnull %5) #21
  call void @llvm.lifetime.start.p0(i64 4, ptr nonnull %6) #21
  call void @llvm.lifetime.start.p0(i64 2, ptr nonnull %7) #21
  %34 = getelementptr inbounds nuw i8, ptr %0, i64 240
  %35 = load ptr, ptr %34, align 8, !tbaa !126
  %36 = call i32 @get_tree_entry(ptr noundef %35, ptr noundef nonnull %33, ptr noundef nonnull %32, ptr noundef nonnull %4, ptr noundef nonnull %7) #21
  %.not13.i = icmp eq i32 %36, 0
  br i1 %.not13.i, label %37, label %read_attr_from_blob.exit

37:                                               ; preds = %31
  %38 = load ptr, ptr %34, align 8, !tbaa !126
  %39 = call ptr @repo_read_object_file(ptr noundef %38, ptr noundef nonnull %4, ptr noundef nonnull %6, ptr noundef nonnull %5) #21
  %40 = icmp eq ptr %39, null
  %41 = load i32, ptr %6, align 4
  %42 = icmp ne i32 %41, 3
  %or.cond.i = select i1 %40, i1 true, i1 %42
  br i1 %or.cond.i, label %43, label %44

43:                                               ; preds = %37
  call void @free(ptr noundef %39) #21
  br label %read_attr_from_blob.exit

44:                                               ; preds = %37
  %45 = load i64, ptr %5, align 8, !tbaa !31
  %46 = call fastcc ptr @read_attr_from_buf(ptr noundef %39, i64 noundef %45, ptr noundef nonnull %32, i32 noundef range(i32 2, 4) %2)
  br label %read_attr_from_blob.exit

read_attr_from_blob.exit:                         ; preds = %31, %43, %44
  %.0.i = phi ptr [ null, %43 ], [ %46, %44 ], [ null, %31 ]
  call void @llvm.lifetime.end.p0(i64 2, ptr nonnull %7) #21
  call void @llvm.lifetime.end.p0(i64 4, ptr nonnull %6) #21
  call void @llvm.lifetime.end.p0(i64 8, ptr nonnull %5) #21
  call void @llvm.lifetime.end.p0(i64 36, ptr nonnull %4) #21
  br label %51

.thread:                                          ; preds = %11, %9, %25, %16
  %47 = call ptr @read_blob_data_from_index(ptr noundef nonnull %0, ptr noundef %1, ptr noundef nonnull %8) #21
  %.not38 = icmp eq ptr %47, null
  br i1 %.not38, label %51, label %48

48:                                               ; preds = %.thread
  %49 = load i64, ptr %8, align 8, !tbaa !31
  %50 = call fastcc ptr @read_attr_from_buf(ptr noundef %47, i64 noundef %49, ptr noundef %1, i32 noundef %2)
  br label %51

51:                                               ; preds = %read_attr_from_blob.exit, %48, %.thread, %3
  %.0 = phi ptr [ null, %3 ], [ %50, %48 ], [ null, %.thread ], [ %.0.i, %read_attr_from_blob.exit ]
  call void @llvm.lifetime.end.p0(i64 8, ptr nonnull %8) #21
  ret ptr %.0
}